target datalayout = "e-m:e-p270:32:32-p271:32:32-p272:64:64-i64:64-i128:128-f80:128-n8:16:32:64-S128"
target triple = "x86_64-pc-linux-gnu"

%struct.ARKodeMemRec = type { ptr, double, ptr, i32, i32, double, double, ptr, i32, double, ptr, i32, i32, ptr, ptr, i32, ptr, ptr, i32, ptr, ptr, ptr, ptr, ptr, ptr, ptr, ptr, ptr, ptr, ptr, ptr, ptr, ptr, ptr, i32, ptr, ptr, i32, ptr, i32, ptr, ptr, ptr, ptr, ptr, ptr, ptr, ptr, ptr, ptr, ptr, ptr, ptr, ptr, ptr, ptr, ptr, ptr, ptr, ptr, ptr, ptr, ptr, ptr, ptr, ptr, i32, ptr, ptr, ptr, ptr, ptr, ptr, ptr, i32, ptr, ptr, ptr, i32, ptr, ptr, ptr, ptr, ptr, ptr, ptr, i32, i32, i32, i32, double, double, double, double, double, double, double, double, double, double, i32, ptr, i64, i32, i32, i32, i32, i64, i64, i32, i64, i64, i64, i64, i64, i64, i64, double, double, double, double, double, i32, double, double, i32, i32, i32, i32, i32, i32, i32, i32, ptr, i32, ptr, ptr, ptr, ptr, i32, i32, i32 }
%struct.ARKLsMemRec = type { i32, i32, i32, ptr, ptr, i32, i32, double, double, ptr, ptr, ptr, ptr, ptr, ptr, ptr, i64, double, i64, i64, i64, i64, i64, i64, i64, i64, i64, double, ptr, ptr, ptr, ptr, i32, ptr, ptr, ptr, ptr, i32, ptr, ptr, i32 }

@.str = private unnamed_addr constant [118 x i8] c"generated/home/dtcxzyw/WorkSpace/Projects/compilers/llvm-opt-benchmark/bench/sundials/sundials/src/arkode/arkode_ls.c\00", align 1
@__func__.arkLsATimes = private unnamed_addr constant [12 x i8] c"arkLsATimes\00", align 1
@.str.38 = private unnamed_addr constant [40 x i8] c"An error occurred in ark_step_getgammas\00", align 1
@.str.63 = private unnamed_addr constant [27 x i8] c"Integrator memory is NULL.\00", align 1
@.str.64 = private unnamed_addr constant [30 x i8] c"Linear solver memory is NULL.\00", align 1

; Function Attrs: nounwind uwtable
define i32 @arkLs_AccessARKODELMem(ptr noundef %0, ptr noundef %1, ptr noundef %2, ptr noundef %3) #0 {
  %5 = alloca i32, align 4
  %6 = alloca ptr, align 8
  %7 = alloca ptr, align 8
  %8 = alloca ptr, align 8
  %9 = alloca ptr, align 8
  %10 = alloca ptr, align 8
  %11 = alloca i32, align 4
  store ptr %0, ptr %6, align 8, !tbaa !3
  store ptr %1, ptr %7, align 8, !tbaa !155
  store ptr %2, ptr %8, align 8, !tbaa !170
  store ptr %3, ptr %9, align 8, !tbaa !157
  call void @llvm.lifetime.start.p0(i64 8, ptr %10) #7
  %12 = load ptr, ptr %6, align 8, !tbaa !3
  %13 = icmp eq ptr %12, null
  br i1 %13, label %14, label %16

14:                                               ; preds = %4
  %15 = load ptr, ptr %7, align 8, !tbaa !155
  call void (ptr, i32, i32, ptr, ptr, ptr, ...) @arkProcessError(ptr noundef null, i32 noundef -1, i32 noundef 4050, ptr noundef %15, ptr noundef @.str, ptr noundef @.str.63)
  store i32 -1, ptr %5, align 4
  store i32 1, ptr %11, align 4
  br label %35

16:                                               ; preds = %4
  %17 = load ptr, ptr %6, align 8, !tbaa !3
  %18 = load ptr, ptr %8, align 8, !tbaa !170
  store ptr %17, ptr %18, align 8, !tbaa !11
  %19 = load ptr, ptr %8, align 8, !tbaa !170
  %20 = load ptr, ptr %19, align 8, !tbaa !11
  %21 = getelementptr inbounds nuw %struct.ARKodeMemRec, ptr %20, i32 0, i32 42
  %22 = load ptr, ptr %21, align 8, !tbaa !41
  %23 = load ptr, ptr %8, align 8, !tbaa !170
  %24 = load ptr, ptr %23, align 8, !tbaa !11
  %25 = call ptr %22(ptr noundef %24)
  store ptr %25, ptr %10, align 8, !tbaa !3
  %26 = load ptr, ptr %10, align 8, !tbaa !3
  %27 = icmp eq ptr %26, null
  br i1 %27, label %28, label %32

28:                                               ; preds = %16
  %29 = load ptr, ptr %8, align 8, !tbaa !170
  %30 = load ptr, ptr %29, align 8, !tbaa !11
  %31 = load ptr, ptr %7, align 8, !tbaa !155
  call void (ptr, i32, i32, ptr, ptr, ptr, ...) @arkProcessError(ptr noundef %30, i32 noundef -2, i32 noundef 4058, ptr noundef %31, ptr noundef @.str, ptr noundef @.str.64)
  store i32 -2, ptr %5, align 4
  store i32 1, ptr %11, align 4
  br label %35

32:                                               ; preds = %16
  %33 = load ptr, ptr %10, align 8, !tbaa !3
  %34 = load ptr, ptr %9, align 8, !tbaa !157
  store ptr %33, ptr %34, align 8, !tbaa !44
  store i32 0, ptr %5, align 4
  store i32 1, ptr %11, align 4
  br label %35

35:                                               ; preds = %32, %28, %14
  call void @llvm.lifetime.end.p0(i64 8, ptr %10) #7
  %36 = load i32, ptr %5, align 4
  ret i32 %36
}

; Function Attrs: nounwind uwtable
define i32 @arkLsATimes(ptr noundef %0, ptr noundef %1, ptr noundef %2) #0 {
  %4 = alloca i32, align 4
  %5 = alloca ptr, align 8
  %6 = alloca ptr, align 8
  %7 = alloca ptr, align 8
  %8 = alloca ptr, align 8
  %9 = alloca ptr, align 8
  %10 = alloca ptr, align 8
  %11 = alloca i32, align 4
  %12 = alloca double, align 8
  %13 = alloca double, align 8
  %14 = alloca i32, align 4
  %15 = alloca ptr, align 8
  %16 = alloca i32, align 4
  store ptr %0, ptr %5, align 8, !tbaa !3
  store ptr %1, ptr %6, align 8, !tbaa !78
  store ptr %2, ptr %7, align 8, !tbaa !78
  call void @llvm.lifetime.start.p0(i64 8, ptr %8) #7
  call void @llvm.lifetime.start.p0(i64 8, ptr %9) #7
  call void @llvm.lifetime.start.p0(i64 8, ptr %10) #7
  call void @llvm.lifetime.start.p0(i64 4, ptr %11) #7
  call void @llvm.lifetime.start.p0(i64 8, ptr %12) #7
  call void @llvm.lifetime.start.p0(i64 8, ptr %13) #7
  call void @llvm.lifetime.start.p0(i64 4, ptr %14) #7
  call void @llvm.lifetime.start.p0(i64 8, ptr %15) #7
  %17 = load ptr, ptr %5, align 8, !tbaa !3
  %18 = call i32 @arkLs_AccessARKODELMem(ptr noundef %17, ptr noundef @__func__.arkLsATimes, ptr noundef %8, ptr noundef %9)
  store i32 %18, ptr %11, align 4, !tbaa !30
  %19 = load i32, ptr %11, align 4, !tbaa !30
  %20 = icmp ne i32 %19, 0
  br i1 %20, label %21, label %23

21:                                               ; preds = %3
  %22 = load i32, ptr %11, align 4, !tbaa !30
  store i32 %22, ptr %4, align 4
  store i32 1, ptr %16, align 4
  br label %105

23:                                               ; preds = %3
  store ptr null, ptr %10, align 8, !tbaa !3
  %24 = load ptr, ptr %8, align 8, !tbaa !11
  %25 = getelementptr inbounds nuw %struct.ARKodeMemRec, ptr %24, i32 0, i32 69
  %26 = load ptr, ptr %25, align 8, !tbaa !97
  %27 = icmp ne ptr %26, null
  br i1 %27, label %28, label %34

28:                                               ; preds = %23
  %29 = load ptr, ptr %8, align 8, !tbaa !11
  %30 = getelementptr inbounds nuw %struct.ARKodeMemRec, ptr %29, i32 0, i32 69
  %31 = load ptr, ptr %30, align 8, !tbaa !97
  %32 = load ptr, ptr %5, align 8, !tbaa !3
  %33 = call ptr %31(ptr noundef %32)
  store ptr %33, ptr %10, align 8, !tbaa !3
  br label %34

34:                                               ; preds = %28, %23
  %35 = load ptr, ptr %8, align 8, !tbaa !11
  %36 = getelementptr inbounds nuw %struct.ARKodeMemRec, ptr %35, i32 0, i32 44
  %37 = load ptr, ptr %36, align 8, !tbaa !43
  %38 = load ptr, ptr %5, align 8, !tbaa !3
  %39 = call i32 %37(ptr noundef %38, ptr noundef %12, ptr noundef %13, ptr noundef %15, ptr noundef %14)
  store i32 %39, ptr %11, align 4, !tbaa !30
  %40 = load i32, ptr %11, align 4, !tbaa !30
  %41 = icmp ne i32 %40, 0
  br i1 %41, label %42, label %46

42:                                               ; preds = %34
  %43 = load ptr, ptr %8, align 8, !tbaa !11
  %44 = load i32, ptr %11, align 4, !tbaa !30
  call void (ptr, i32, i32, ptr, ptr, ptr, ...) @arkProcessError(ptr noundef %43, i32 noundef %44, i32 noundef 2326, ptr noundef @__func__.arkLsATimes, ptr noundef @.str, ptr noundef @.str.38)
  %45 = load i32, ptr %11, align 4, !tbaa !30
  store i32 %45, ptr %4, align 4
  store i32 1, ptr %16, align 4
  br label %105

46:                                               ; preds = %34
  %47 = load ptr, ptr %9, align 8, !tbaa !44
  %48 = getelementptr inbounds nuw %struct.ARKLsMemRec, ptr %47, i32 0, i32 34
  %49 = load ptr, ptr %48, align 8, !tbaa !55
  %50 = load ptr, ptr %6, align 8, !tbaa !78
  %51 = load ptr, ptr %7, align 8, !tbaa !78
  %52 = load ptr, ptr %9, align 8, !tbaa !44
  %53 = getelementptr inbounds nuw %struct.ARKLsMemRec, ptr %52, i32 0, i32 17
  %54 = load double, ptr %53, align 8, !tbaa !98
  %55 = load ptr, ptr %9, align 8, !tbaa !44
  %56 = getelementptr inbounds nuw %struct.ARKLsMemRec, ptr %55, i32 0, i32 14
  %57 = load ptr, ptr %56, align 8, !tbaa !99
  %58 = load ptr, ptr %9, align 8, !tbaa !44
  %59 = getelementptr inbounds nuw %struct.ARKLsMemRec, ptr %58, i32 0, i32 15
  %60 = load ptr, ptr %59, align 8, !tbaa !100
  %61 = load ptr, ptr %9, align 8, !tbaa !44
  %62 = getelementptr inbounds nuw %struct.ARKLsMemRec, ptr %61, i32 0, i32 36
  %63 = load ptr, ptr %62, align 8, !tbaa !56
  %64 = load ptr, ptr %9, align 8, !tbaa !44
  %65 = getelementptr inbounds nuw %struct.ARKLsMemRec, ptr %64, i32 0, i32 12
  %66 = load ptr, ptr %65, align 8, !tbaa !73
  %67 = call i32 %49(ptr noundef %50, ptr noundef %51, double noundef %54, ptr noundef %57, ptr noundef %60, ptr noundef %63, ptr noundef %66)
  store i32 %67, ptr %11, align 4, !tbaa !30
  %68 = load ptr, ptr %9, align 8, !tbaa !44
  %69 = getelementptr inbounds nuw %struct.ARKLsMemRec, ptr %68, i32 0, i32 26
  %70 = load i64, ptr %69, align 8, !tbaa !96
  %71 = add nsw i64 %70, 1
  store i64 %71, ptr %69, align 8, !tbaa !96
  %72 = load i32, ptr %11, align 4, !tbaa !30
  %73 = icmp ne i32 %72, 0
  br i1 %73, label %74, label %76

74:                                               ; preds = %46
  %75 = load i32, ptr %11, align 4, !tbaa !30
  store i32 %75, ptr %4, align 4
  store i32 1, ptr %16, align 4
  br label %105

76:                                               ; preds = %46
  %77 = load ptr, ptr %10, align 8, !tbaa !3
  %78 = icmp ne ptr %77, null
  br i1 %78, label %79, label %98

79:                                               ; preds = %76
  %80 = load ptr, ptr %5, align 8, !tbaa !3
  %81 = load ptr, ptr %6, align 8, !tbaa !78
  %82 = load ptr, ptr %9, align 8, !tbaa !44
  %83 = getelementptr inbounds nuw %struct.ARKLsMemRec, ptr %82, i32 0, i32 12
  %84 = load ptr, ptr %83, align 8, !tbaa !73
  %85 = call i32 @arkLsMTimes(ptr noundef %80, ptr noundef %81, ptr noundef %84)
  store i32 %85, ptr %11, align 4, !tbaa !30
  %86 = load i32, ptr %11, align 4, !tbaa !30
  %87 = icmp ne i32 %86, 0
  br i1 %87, label %88, label %90

88:                                               ; preds = %79
  %89 = load i32, ptr %11, align 4, !tbaa !30
  store i32 %89, ptr %4, align 4
  store i32 1, ptr %16, align 4
  br label %105

90:                                               ; preds = %79
  %91 = load ptr, ptr %9, align 8, !tbaa !44
  %92 = getelementptr inbounds nuw %struct.ARKLsMemRec, ptr %91, i32 0, i32 12
  %93 = load ptr, ptr %92, align 8, !tbaa !73
  %94 = load double, ptr %12, align 8, !tbaa !77
  %95 = fneg double %94
  %96 = load ptr, ptr %7, align 8, !tbaa !78
  %97 = load ptr, ptr %7, align 8, !tbaa !78
  call void @N_VLinearSum(double noundef 1.000000e+00, ptr noundef %93, double noundef %95, ptr noundef %96, ptr noundef %97)
  br label %104

98:                                               ; preds = %76
  %99 = load ptr, ptr %6, align 8, !tbaa !78
  %100 = load double, ptr %12, align 8, !tbaa !77
  %101 = fneg double %100
  %102 = load ptr, ptr %7, align 8, !tbaa !78
  %103 = load ptr, ptr %7, align 8, !tbaa !78
  call void @N_VLinearSum(double noundef 1.000000e+00, ptr noundef %99, double noundef %101, ptr noundef %102, ptr noundef %103)
  br label %104

104:                                              ; preds = %98, %90
  store i32 0, ptr %4, align 4
  store i32 1, ptr %16, align 4
  br label %105

105:                                              ; preds = %104, %88, %74, %42, %21
  call void @llvm.lifetime.end.p0(i64 8, ptr %15) #7
  call void @llvm.lifetime.end.p0(i64 4, ptr %14) #7
  call void @llvm.lifetime.end.p0(i64 8, ptr %13) #7
  call void @llvm.lifetime.end.p0(i64 8, ptr %12) #7
  call void @llvm.lifetime.end.p0(i64 4, ptr %11) #7
  call void @llvm.lifetime.end.p0(i64 8, ptr %10) #7
  call void @llvm.lifetime.end.p0(i64 8, ptr %9) #7
  call void @llvm.lifetime.end.p0(i64 8, ptr %8) #7
  %106 = load i32, ptr %4, align 4
  ret i32 %106
}