; Function Attrs: nounwind uwtable
define i32 @arkLsATimes(ptr noundef %0, ptr noundef %1, ptr noundef %2) #0 {
  %4 = alloca double, align 8
  %5 = alloca double, align 8
  %6 = alloca i32, align 4
  %7 = alloca ptr, align 8
  call void @llvm.lifetime.start.p0(i64 8, ptr nonnull %4) #13
  call void @llvm.lifetime.start.p0(i64 8, ptr nonnull %5) #13
  call void @llvm.lifetime.start.p0(i64 4, ptr nonnull %6) #13
  call void @llvm.lifetime.start.p0(i64 8, ptr nonnull %7) #13
  %8 = icmp eq ptr %0, null
  br i1 %8, label %9, label %10

9:                                                ; preds = %3
  tail call void (ptr, i32, i32, ptr, ptr, ptr, ...) @arkProcessError(ptr noundef null, i32 noundef -1, i32 noundef 4050, ptr noundef nonnull @__func__.arkLsATimes, ptr noundef nonnull @.str, ptr noundef nonnull @.str.63) #13
  br label %arkLs_AccessARKODELMem.exit.thread

10:                                               ; preds = %3
  %11 = getelementptr inbounds nuw i8, ptr %0, i64 320
  %12 = load ptr, ptr %11, align 8, !tbaa !33
  %13 = tail call ptr %12(ptr noundef nonnull %0) #13
  %14 = icmp eq ptr %13, null
  br i1 %14, label %15, label %arkLs_AccessARKODELMem.exit

15:                                               ; preds = %10
  tail call void (ptr, i32, i32, ptr, ptr, ptr, ...) @arkProcessError(ptr noundef nonnull %0, i32 noundef -2, i32 noundef 4058, ptr noundef nonnull @__func__.arkLsATimes, ptr noundef nonnull @.str, ptr noundef nonnull @.str.64) #13
  br label %arkLs_AccessARKODELMem.exit.thread

arkLs_AccessARKODELMem.exit:                      ; preds = %10
  %16 = getelementptr inbounds nuw i8, ptr %0, i64 536
  %17 = load ptr, ptr %16, align 8, !tbaa !75
  %.not28 = icmp eq ptr %17, null
  br i1 %.not28, label %21, label %18

18:                                               ; preds = %arkLs_AccessARKODELMem.exit
  %19 = tail call ptr %17(ptr noundef nonnull %0) #13
  %20 = icmp eq ptr %19, null
  br label %21

21:                                               ; preds = %18, %arkLs_AccessARKODELMem.exit
  %.0 = phi i1 [ %20, %18 ], [ true, %arkLs_AccessARKODELMem.exit ]
  %22 = getelementptr inbounds nuw i8, ptr %0, i64 336
  %23 = load ptr, ptr %22, align 8, !tbaa !35
  %24 = call i32 %23(ptr noundef nonnull %0, ptr noundef nonnull %4, ptr noundef nonnull %5, ptr noundef nonnull %7, ptr noundef nonnull %6) #13
  %.not29 = icmp eq i32 %24, 0
  br i1 %.not29, label %26, label %25

25:                                               ; preds = %21
  call void (ptr, i32, i32, ptr, ptr, ptr, ...) @arkProcessError(ptr noundef nonnull %0, i32 noundef %24, i32 noundef 2326, ptr noundef nonnull @__func__.arkLsATimes, ptr noundef nonnull @.str, ptr noundef nonnull @.str.38) #13
  br label %arkLs_AccessARKODELMem.exit.thread

26:                                               ; preds = %21
  %27 = getelementptr inbounds nuw i8, ptr %13, i64 256
  %28 = load ptr, ptr %27, align 8, !tbaa !47
  %29 = getelementptr inbounds nuw i8, ptr %13, i64 120
  %30 = load double, ptr %29, align 8, !tbaa !76
  %31 = getelementptr inbounds nuw i8, ptr %13, i64 96
  %32 = load ptr, ptr %31, align 8, !tbaa !77
  %33 = getelementptr inbounds nuw i8, ptr %13, i64 104
  %34 = load ptr, ptr %33, align 8, !tbaa !78
  %35 = getelementptr inbounds nuw i8, ptr %13, i64 272
  %36 = load ptr, ptr %35, align 8, !tbaa !48
  %37 = getelementptr inbounds nuw i8, ptr %13, i64 80
  %38 = load ptr, ptr %37, align 8, !tbaa !62
  %39 = call i32 %28(ptr noundef %1, ptr noundef %2, double noundef %30, ptr noundef %32, ptr noundef %34, ptr noundef %36, ptr noundef %38) #13
  %40 = getelementptr inbounds nuw i8, ptr %13, i64 192
  %41 = load i64, ptr %40, align 8, !tbaa !79
  %42 = add nsw i64 %41, 1
  store i64 %42, ptr %40, align 8, !tbaa !79
  %.not30 = icmp eq i32 %39, 0
  br i1 %.not30, label %43, label %arkLs_AccessARKODELMem.exit.thread

43:                                               ; preds = %26
  br i1 %.0, label %51, label %44

44:                                               ; preds = %43
  %45 = load ptr, ptr %37, align 8, !tbaa !62
  %46 = call i32 @arkLsMTimes(ptr noundef nonnull %0, ptr noundef %1, ptr noundef %45)
  %.not32 = icmp eq i32 %46, 0
  br i1 %.not32, label %47, label %arkLs_AccessARKODELMem.exit.thread

47:                                               ; preds = %44
  %48 = load ptr, ptr %37, align 8, !tbaa !62
  %49 = load double, ptr %4, align 8, !tbaa !80
  %50 = fneg double %49
  call void @N_VLinearSum(double noundef 1.000000e+00, ptr noundef %48, double noundef %50, ptr noundef %2, ptr noundef %2) #13
  br label %arkLs_AccessARKODELMem.exit.thread

51:                                               ; preds = %43
  %52 = load double, ptr %4, align 8, !tbaa !80
  %53 = fneg double %52
  call void @N_VLinearSum(double noundef 1.000000e+00, ptr noundef %1, double noundef %53, ptr noundef %2, ptr noundef %2) #13
  br label %arkLs_AccessARKODELMem.exit.thread

arkLs_AccessARKODELMem.exit.thread:               ; preds = %15, %9, %47, %51, %44, %26, %25
  %.022 = phi i32 [ %24, %25 ], [ %39, %26 ], [ %46, %44 ], [ 0, %51 ], [ 0, %47 ], [ -2, %15 ], [ -1, %9 ]
  call void @llvm.lifetime.end.p0(i64 8, ptr nonnull %7) #13
  call void @llvm.lifetime.end.p0(i64 4, ptr nonnull %6) #13
  call void @llvm.lifetime.end.p0(i64 8, ptr nonnull %5) #13
  call void @llvm.lifetime.end.p0(i64 8, ptr nonnull %4) #13
  ret i32 %.022
}